; Function Attrs: mustprogress uwtable
define noundef zeroext i1 @_ZN3zmq14ws_connecter_t11tune_socketEi(ptr noundef nonnull readonly align 8 captures(none) dereferenceable(1560) %0, i32 noundef %1) local_unnamed_addr #0 align 2 {
  %3 = tail call noundef i32 @_ZN3zmq15tune_tcp_socketEi(i32 noundef %1)
  %4 = getelementptr inbounds nuw i8, ptr %0, i64 344
  %5 = load i32, ptr %4, align 8, !tbaa !76
  %6 = tail call noundef i32 @_ZN3zmq14tune_tcp_maxrtEii(i32 noundef %1, i32 noundef %5)
  %7 = or i32 %6, %3
  %8 = icmp eq i32 %7, 0
  ret i1 %8
}